; Function Attrs: mustprogress uwtable
define noundef nonnull align 8 dereferenceable(64) ptr @_ZN6icu_7518UnicodeSetIterator9getStringEv(ptr nocapture noundef nonnull align 8 dereferenceable(64) %this) local_unnamed_addr #1 align 2 personality ptr @__gxx_personality_v0 {
entry:
  %string = getelementptr inbounds i8, ptr %this, i64 16
  %0 = load ptr, ptr %string, align 8
  %cmp = icmp eq ptr %0, null
  br i1 %cmp, label %land.lhs.true, label %if.end15

land.lhs.true:                                    ; preds = %entry
  %codepoint = getelementptr inbounds i8, ptr %this, i64 8
  %1 = load i32, ptr %codepoint, align 8
  %cmp2.not = icmp ne i32 %1, -1
  tail call void @llvm.assume(i1 %cmp2.not)
  %cpString = getelementptr inbounds i8, ptr %this, i64 56
  %2 = load ptr, ptr %cpString, align 8
  %cmp3 = icmp eq ptr %2, null
  br i1 %cmp3, label %if.then4, label %if.then8

if.then4:                                         ; preds = %land.lhs.true
  %call = tail call noundef ptr @_ZN6icu_757UMemorynwEm(i64 noundef 64) #7
  %new.isnull = icmp eq ptr %call, null
  br i1 %new.isnull, label %if.end.thread2, label %if.end

if.end.thread2:                                   ; preds = %if.then4
  store ptr null, ptr %cpString, align 8
  br label %if.end12

if.end:                                           ; preds = %if.then4
  store ptr getelementptr inbounds ({ [13 x ptr] }, ptr @_ZTVN6icu_7513UnicodeStringE, i64 0, i32 0, i64 2), ptr %call, align 8
  %fUnion2.i = getelementptr inbounds i8, ptr %call, i64 8
  store i16 2, ptr %fUnion2.i, align 8
  store ptr %call, ptr %cpString, align 8
  %.pre = load i32, ptr %codepoint, align 8
  br label %if.then8

if.then8:                                         ; preds = %land.lhs.true, %if.end
  %3 = phi i32 [ %.pre, %if.end ], [ %1, %land.lhs.true ]
  %4 = phi ptr [ %call, %if.end ], [ %2, %land.lhs.true ]
  tail call void @_ZN6icu_7513UnicodeString7unBogusEv(ptr noundef nonnull align 8 dereferenceable(64) %4)
  %fUnion.i.i.i = getelementptr inbounds i8, ptr %4, i64 8
  %5 = load i16, ptr %fUnion.i.i.i, align 8
  %cmp.i.i.i = icmp slt i16 %5, 0
  %6 = ashr i16 %5, 5
  %shr.i.i.i = sext i16 %6 to i32
  %fLength.i.i = getelementptr inbounds i8, ptr %4, i64 12
  %7 = load i32, ptr %fLength.i.i, align 4
  %cond.i.i = select i1 %cmp.i.i.i, i32 %7, i32 %shr.i.i.i
  %call2.i = tail call noundef nonnull align 8 dereferenceable(64) ptr @_ZN6icu_7513UnicodeString7replaceEiii(ptr noundef nonnull align 8 dereferenceable(64) %4, i32 noundef 0, i32 noundef %cond.i.i, i32 noundef %3)
  %.pre4 = load ptr, ptr %cpString, align 8
  br label %if.end12

if.end12:                                         ; preds = %if.end.thread2, %if.then8
  %8 = phi ptr [ null, %if.end.thread2 ], [ %.pre4, %if.then8 ]
  store ptr %8, ptr %string, align 8
  br label %if.end15

if.end15:                                         ; preds = %if.end12, %entry
  %9 = phi ptr [ %8, %if.end12 ], [ %0, %entry ]
  ret ptr %9
}